; Function Attrs: mustprogress nounwind uwtable
define void @_ZN7mitsuba6BitmapD2Ev(ptr noundef nonnull align 8 dereferenceable(64) %0) unnamed_addr #6 align 2 {
  store ptr getelementptr inbounds inrange(-16, 72) ({ [11 x ptr] }, ptr @_ZTVN7mitsuba6BitmapE, i64 0, i32 0, i64 2), ptr %0, align 8
  %2 = getelementptr inbounds i8, ptr %0, i64 50
  %3 = load i8, ptr %2, align 2
  %4 = and i8 %3, 1
  %.not = icmp eq i8 %4, 0
  br i1 %.not, label %5, label %7

5:                                                ; preds = %1
  %6 = getelementptr inbounds i8, ptr %0, i64 16
  store ptr null, ptr %6, align 8
  br label %7

7:                                                ; preds = %5, %1
  %8 = getelementptr inbounds i8, ptr %0, i64 56
  tail call void @_ZN7mitsuba10PropertiesD1Ev(ptr noundef nonnull align 8 dereferenceable(8) %8) #36
  %9 = getelementptr inbounds i8, ptr %0, i64 40
  %10 = load ptr, ptr %9, align 8
  %.not.i = icmp eq ptr %10, null
  br i1 %.not.i, label %_ZN7mitsuba3refINS_6StructEED2Ev.exit, label %11

11:                                               ; preds = %7
  tail call void @_ZNK7mitsuba6Object7dec_refEb(ptr noundef nonnull align 8 dereferenceable(12) %10, i1 noundef zeroext true) #36
  br label %_ZN7mitsuba3refINS_6StructEED2Ev.exit

_ZN7mitsuba3refINS_6StructEED2Ev.exit:            ; preds = %7, %11
  %12 = getelementptr inbounds i8, ptr %0, i64 16
  %13 = load ptr, ptr %12, align 8
  store ptr null, ptr %12, align 8
  %.not.i.i = icmp eq ptr %13, null
  br i1 %.not.i.i, label %_ZNSt3__110unique_ptrIA_hNS_14default_deleteIS1_EEED2B8ne190000Ev.exit, label %_ZNKSt3__114default_deleteIA_hEclB8ne190000IhEENS2_20_EnableIfConvertibleIT_E4typeEPS5_.exit.i.i

_ZNKSt3__114default_deleteIA_hEclB8ne190000IhEENS2_20_EnableIfConvertibleIT_E4typeEPS5_.exit.i.i: ; preds = %_ZN7mitsuba3refINS_6StructEED2Ev.exit
  tail call void @_ZdaPv(ptr noundef nonnull %13) #35
  br label %_ZNSt3__110unique_ptrIA_hNS_14default_deleteIS1_EEED2B8ne190000Ev.exit

_ZNSt3__110unique_ptrIA_hNS_14default_deleteIS1_EEED2B8ne190000Ev.exit: ; preds = %_ZN7mitsuba3refINS_6StructEED2Ev.exit, %_ZNKSt3__114default_deleteIA_hEclB8ne190000IhEENS2_20_EnableIfConvertibleIT_E4typeEPS5_.exit.i.i
  tail call void @_ZN7mitsuba6ObjectD2Ev(ptr noundef nonnull align 8 dereferenceable(12) %0) #36
  ret void
}